target datalayout = "e-m:e-p270:32:32-p271:32:32-p272:64:64-i64:64-i128:128-f80:128-n8:16:32:64-S128"
target triple = "x86_64-pc-linux-gnu"

%class.params_ref = type { ptr }
%class.arith_eq_solver = type { ptr, %class.params_ref, %class.arith_util, %class.arith_rewriter }
%class.arith_util = type { ptr, ptr }
%class.arith_rewriter = type { %class.poly_rewriter.base, i8, i8, i8, i8, i8, i8, i8, i8, i32 }
%class.poly_rewriter.base = type <{ %class.arith_rewriter_core.base, [5 x i8], ptr, %class.obj_map, i8, i8, [2 x i8], i32, i8, i8, i8, i8 }>
%class.arith_rewriter_core.base = type <{ ptr, %class.arith_util, %class.scoped_ptr, i8, i8, i8 }>
%class.scoped_ptr = type { ptr }
%class.obj_map = type { %class.core_hashtable }
%class.core_hashtable = type <{ ptr, i32, i32, i32, [4 x i8] }>
%class.rational = type { %class.mpq }
%class.mpq = type { %class.mpz, %class.mpz }
%class.mpz = type { i32, i8, ptr }
%class.app = type { %class.expr, ptr, i32, %struct.app_flags, [0 x ptr] }
%class.expr = type { %class.ast }
%class.ast = type { i32, i32, i32, i32 }
%struct.app_flags = type <{ i16, i8, i8 }>
%class.decl = type { %class.ast, %class.symbol, ptr }
%class.symbol = type { ptr }
%class.decl_info = type <{ i32, i32, %class.vector.36, i8, [7 x i8] }>
%class.vector.36 = type { ptr }

@_ZN8rational13g_mpq_managerE = external global ptr, align 8

; Function Attrs: mustprogress nounwind uwtable
define linkonce_odr hidden noundef i32 @_ZN11mpz_managerILb1EE4signERK3mpz(ptr noundef nonnull align 8 dereferenceable(16) %0) #7 comdat align 2 {
  %2 = alloca ptr, align 8
  store ptr %0, ptr %2, align 8, !tbaa !177
  %3 = load ptr, ptr %2, align 8, !tbaa !177
  %4 = getelementptr inbounds nuw %class.mpz, ptr %3, i32 0, i32 0
  %5 = load i32, ptr %4, align 8, !tbaa !179
  ret i32 %5
}

; Function Attrs: mustprogress nounwind uwtable
define linkonce_odr hidden noundef zeroext i1 @_ZNK9decl_info10is_decl_ofEii(ptr noundef nonnull align 8 dereferenceable(17) %0, i32 noundef %1, i32 noundef %2) #7 comdat align 2 {
  %4 = alloca ptr, align 8
  %5 = alloca i32, align 4
  %6 = alloca i32, align 4
  store ptr %0, ptr %4, align 8, !tbaa !169
  store i32 %1, ptr %5, align 4, !tbaa !27
  store i32 %2, ptr %6, align 4, !tbaa !27
  %7 = load ptr, ptr %4, align 8
  %8 = getelementptr inbounds nuw %class.decl_info, ptr %7, i32 0, i32 0
  %9 = load i32, ptr %8, align 8, !tbaa !170
  %10 = load i32, ptr %5, align 4, !tbaa !27
  %11 = icmp eq i32 %9, %10
  br i1 %11, label %12, label %17

12:                                               ; preds = %3
  %13 = load i32, ptr %6, align 4, !tbaa !27
  %14 = getelementptr inbounds nuw %class.decl_info, ptr %7, i32 0, i32 1
  %15 = load i32, ptr %14, align 4, !tbaa !174
  %16 = icmp eq i32 %13, %15
  br label %17

17:                                               ; preds = %12, %3
  %18 = phi i1 [ false, %3 ], [ %16, %12 ]
  ret i1 %18
}

; Function Attrs: mustprogress uwtable
define linkonce_odr hidden noundef zeroext i1 @_ZN11mpz_managerILb1EE6is_negERK3mpz(ptr noundef nonnull align 8 dereferenceable(16) %0) #4 comdat align 2 {
  %2 = alloca ptr, align 8
  store ptr %0, ptr %2, align 8, !tbaa !177
  %3 = load ptr, ptr %2, align 8, !tbaa !177
  %4 = call noundef i32 @_ZN11mpz_managerILb1EE4signERK3mpz(ptr noundef nonnull align 8 dereferenceable(16) %3)
  %5 = icmp slt i32 %4, 0
  ret i1 %5
}

; Function Attrs: mustprogress uwtable
define linkonce_odr hidden noundef zeroext i1 @_ZNK4decl10is_decl_ofEii(ptr noundef nonnull align 8 dereferenceable(32) %0, i32 noundef %1, i32 noundef %2) #4 comdat align 2 {
  %4 = alloca ptr, align 8
  %5 = alloca i32, align 4
  %6 = alloca i32, align 4
  store ptr %0, ptr %4, align 8, !tbaa !162
  store i32 %1, ptr %5, align 4, !tbaa !27
  store i32 %2, ptr %6, align 4, !tbaa !27
  %7 = load ptr, ptr %4, align 8
  %8 = getelementptr inbounds nuw %class.decl, ptr %7, i32 0, i32 2
  %9 = load ptr, ptr %8, align 8, !tbaa !164
  %10 = icmp ne ptr %9, null
  br i1 %10, label %11, label %17

11:                                               ; preds = %3
  %12 = getelementptr inbounds nuw %class.decl, ptr %7, i32 0, i32 2
  %13 = load ptr, ptr %12, align 8, !tbaa !164
  %14 = load i32, ptr %5, align 4, !tbaa !27
  %15 = load i32, ptr %6, align 4, !tbaa !27
  %16 = call noundef zeroext i1 @_ZNK9decl_info10is_decl_ofEii(ptr noundef nonnull align 8 dereferenceable(17) %13, i32 noundef %14, i32 noundef %15)
  br label %17

17:                                               ; preds = %11, %3
  %18 = phi i1 [ false, %3 ], [ %16, %11 ]
  ret i1 %18
}

; Function Attrs: mustprogress uwtable
define linkonce_odr hidden noundef zeroext i1 @_ZN11mpq_managerILb1EE6is_negERK3mpz(ptr noundef nonnull align 8 dereferenceable(16) %0) #4 comdat align 2 {
  %2 = alloca ptr, align 8
  store ptr %0, ptr %2, align 8, !tbaa !177
  %3 = load ptr, ptr %2, align 8, !tbaa !177
  %4 = call noundef zeroext i1 @_ZN11mpz_managerILb1EE6is_negERK3mpz(ptr noundef nonnull align 8 dereferenceable(16) %3)
  ret i1 %4
}

; Function Attrs: mustprogress nounwind uwtable
define linkonce_odr hidden void @_ZN3mpzC2Ei(ptr noundef nonnull align 8 dereferenceable(16) %0, i32 noundef %1) unnamed_addr #7 comdat align 2 {
  %3 = alloca ptr, align 8
  %4 = alloca i32, align 4
  store ptr %0, ptr %3, align 8, !tbaa !177
  store i32 %1, ptr %4, align 4, !tbaa !27
  %5 = load ptr, ptr %3, align 8
  %6 = getelementptr inbounds nuw %class.mpz, ptr %5, i32 0, i32 0
  %7 = load i32, ptr %4, align 4, !tbaa !27
  store i32 %7, ptr %6, align 8, !tbaa !179
  %8 = getelementptr inbounds nuw %class.mpz, ptr %5, i32 0, i32 1
  %9 = load i8, ptr %8, align 4
  %10 = and i8 %9, -2
  %11 = or i8 %10, 0
  store i8 %11, ptr %8, align 4
  %12 = getelementptr inbounds nuw %class.mpz, ptr %5, i32 0, i32 1
  %13 = load i8, ptr %12, align 4
  %14 = and i8 %13, -3
  %15 = or i8 %14, 0
  store i8 %15, ptr %12, align 4
  %16 = getelementptr inbounds nuw %class.mpz, ptr %5, i32 0, i32 2
  store ptr null, ptr %16, align 8, !tbaa !182
  ret void
}

; Function Attrs: mustprogress nounwind uwtable
define linkonce_odr hidden void @_ZN3mpzC2Ev(ptr noundef nonnull align 8 dereferenceable(16) %0) unnamed_addr #7 comdat align 2 {
  %2 = alloca ptr, align 8
  store ptr %0, ptr %2, align 8, !tbaa !177
  %3 = load ptr, ptr %2, align 8
  %4 = getelementptr inbounds nuw %class.mpz, ptr %3, i32 0, i32 0
  store i32 0, ptr %4, align 8, !tbaa !179
  %5 = getelementptr inbounds nuw %class.mpz, ptr %3, i32 0, i32 1
  %6 = load i8, ptr %5, align 4
  %7 = and i8 %6, -2
  %8 = or i8 %7, 0
  store i8 %8, ptr %5, align 4
  %9 = getelementptr inbounds nuw %class.mpz, ptr %3, i32 0, i32 1
  %10 = load i8, ptr %9, align 4
  %11 = and i8 %10, -3
  %12 = or i8 %11, 0
  store i8 %12, ptr %9, align 4
  %13 = getelementptr inbounds nuw %class.mpz, ptr %3, i32 0, i32 2
  store ptr null, ptr %13, align 8, !tbaa !182
  ret void
}

; Function Attrs: mustprogress uwtable
define linkonce_odr hidden noundef zeroext i1 @_ZNK3app9is_app_ofEii(ptr noundef nonnull align 8 dereferenceable(32) %0, i32 noundef %1, i32 noundef %2) #4 comdat align 2 {
  %4 = alloca ptr, align 8
  %5 = alloca i32, align 4
  %6 = alloca i32, align 4
  store ptr %0, ptr %4, align 8, !tbaa !25
  store i32 %1, ptr %5, align 4, !tbaa !27
  store i32 %2, ptr %6, align 4, !tbaa !27
  %7 = load ptr, ptr %4, align 8
  %8 = getelementptr inbounds nuw %class.app, ptr %7, i32 0, i32 1
  %9 = load ptr, ptr %8, align 8, !tbaa !72
  %10 = load i32, ptr %5, align 4, !tbaa !27
  %11 = load i32, ptr %6, align 4, !tbaa !27
  %12 = call noundef zeroext i1 @_ZNK4decl10is_decl_ofEii(ptr noundef nonnull align 8 dereferenceable(32) %9, i32 noundef %10, i32 noundef %11)
  ret i1 %12
}

; Function Attrs: inlinehint mustprogress nounwind uwtable
define linkonce_odr hidden noundef ptr @_Z6to_appPK3ast(ptr noundef %0) #8 comdat {
  %2 = alloca ptr, align 8
  store ptr %0, ptr %2, align 8, !tbaa !23
  %3 = load ptr, ptr %2, align 8, !tbaa !23
  ret ptr %3
}

; Function Attrs: mustprogress nounwind uwtable
define linkonce_odr hidden noundef i32 @_ZNK3ast8get_kindEv(ptr noundef nonnull align 4 dereferenceable(16) %0) #7 comdat align 2 {
  %2 = alloca ptr, align 8
  store ptr %0, ptr %2, align 8, !tbaa !23
  %3 = load ptr, ptr %2, align 8
  %4 = getelementptr inbounds nuw %class.ast, ptr %3, i32 0, i32 1
  %5 = load i32, ptr %4, align 4
  %6 = and i32 %5, 65535
  ret i32 %6
}

; Function Attrs: mustprogress uwtable
define linkonce_odr hidden noundef zeroext i1 @_ZN11mpq_managerILb1EE6is_negERK3mpq(ptr noundef nonnull align 8 dereferenceable(32) %0) #4 comdat align 2 {
  %2 = alloca ptr, align 8
  store ptr %0, ptr %2, align 8, !tbaa !175
  %3 = load ptr, ptr %2, align 8, !tbaa !175
  %4 = getelementptr inbounds nuw %class.mpq, ptr %3, i32 0, i32 0
  %5 = call noundef zeroext i1 @_ZN11mpq_managerILb1EE6is_negERK3mpz(ptr noundef nonnull align 8 dereferenceable(16) %4)
  ret i1 %5
}

; Function Attrs: mustprogress nounwind uwtable
define linkonce_odr hidden noundef nonnull align 8 dereferenceable(728) ptr @_ZN8rational1mEv() #7 comdat align 2 {
  %1 = load ptr, ptr @_ZN8rational13g_mpq_managerE, align 8, !tbaa !31
  ret ptr %1
}

; Function Attrs: mustprogress uwtable
define linkonce_odr hidden void @_ZN3mpqC2Ev(ptr noundef nonnull align 8 dereferenceable(32) %0) unnamed_addr #4 comdat align 2 {
  %2 = alloca ptr, align 8
  store ptr %0, ptr %2, align 8, !tbaa !175
  %3 = load ptr, ptr %2, align 8
  %4 = getelementptr inbounds nuw %class.mpq, ptr %3, i32 0, i32 0
  call void @_ZN3mpzC2Ev(ptr noundef nonnull align 8 dereferenceable(16) %4)
  %5 = getelementptr inbounds nuw %class.mpq, ptr %3, i32 0, i32 1
  call void @_ZN3mpzC2Ei(ptr noundef nonnull align 8 dereferenceable(16) %5, i32 noundef 1)
  ret void
}

; Function Attrs: inlinehint mustprogress uwtable
define linkonce_odr hidden noundef zeroext i1 @_Z9is_app_ofPK4exprii(ptr noundef %0, i32 noundef %1, i32 noundef %2) #9 comdat {
  %4 = alloca ptr, align 8
  %5 = alloca i32, align 4
  %6 = alloca i32, align 4
  store ptr %0, ptr %4, align 8, !tbaa !19
  store i32 %1, ptr %5, align 4, !tbaa !27
  store i32 %2, ptr %6, align 4, !tbaa !27
  %7 = load ptr, ptr %4, align 8, !tbaa !19
  %8 = call noundef i32 @_ZNK3ast8get_kindEv(ptr noundef nonnull align 4 dereferenceable(16) %7)
  %9 = icmp eq i32 %8, 0
  br i1 %9, label %10, label %16

10:                                               ; preds = %3
  %11 = load ptr, ptr %4, align 8, !tbaa !19
  %12 = call noundef ptr @_Z6to_appPK3ast(ptr noundef %11)
  %13 = load i32, ptr %5, align 4, !tbaa !27
  %14 = load i32, ptr %6, align 4, !tbaa !27
  %15 = call noundef zeroext i1 @_ZNK3app9is_app_ofEii(ptr noundef nonnull align 8 dereferenceable(32) %12, i32 noundef %13, i32 noundef %14)
  br label %16

16:                                               ; preds = %10, %3
  %17 = phi i1 [ false, %3 ], [ %15, %10 ]
  ret i1 %17
}

; Function Attrs: mustprogress uwtable
define linkonce_odr hidden noundef zeroext i1 @_ZNK8rational6is_negEv(ptr noundef nonnull align 8 dereferenceable(32) %0) #4 comdat align 2 {
  %2 = alloca ptr, align 8
  store ptr %0, ptr %2, align 8, !tbaa !29
  %3 = load ptr, ptr %2, align 8
  %4 = call noundef nonnull align 8 dereferenceable(728) ptr @_ZN8rational1mEv()
  %5 = getelementptr inbounds nuw %class.rational, ptr %3, i32 0, i32 0
  %6 = call noundef zeroext i1 @_ZN11mpq_managerILb1EE6is_negERK3mpq(ptr noundef nonnull align 8 dereferenceable(32) %5)
  ret i1 %6
}

; Function Attrs: mustprogress uwtable
define linkonce_odr hidden void @_ZN8rationalC2Ev(ptr noundef nonnull align 8 dereferenceable(32) %0) unnamed_addr #4 comdat align 2 {
  %2 = alloca ptr, align 8
  store ptr %0, ptr %2, align 8, !tbaa !29
  %3 = load ptr, ptr %2, align 8
  %4 = getelementptr inbounds nuw %class.rational, ptr %3, i32 0, i32 0
  call void @_ZN3mpqC2Ev(ptr noundef nonnull align 8 dereferenceable(32) %4)
  ret void
}

; Function Attrs: mustprogress uwtable
define linkonce_odr hidden noundef zeroext i1 @_ZNK17arith_recognizers6is_mulEPK4expr(ptr noundef nonnull align 1 dereferenceable(1) %0, ptr noundef %1) #4 comdat align 2 {
  %3 = alloca ptr, align 8
  %4 = alloca ptr, align 8
  store ptr %0, ptr %3, align 8, !tbaa !21
  store ptr %1, ptr %4, align 8, !tbaa !19
  %5 = load ptr, ptr %4, align 8, !tbaa !19
  %6 = call noundef zeroext i1 @_Z9is_app_ofPK4exprii(ptr noundef %5, i32 noundef 5, i32 noundef 9)
  ret i1 %6
}

; Function Attrs: mustprogress nounwind uwtable
define linkonce_odr hidden noundef ptr @_ZNK3app7get_argEj(ptr noundef nonnull align 8 dereferenceable(32) %0, i32 noundef %1) #7 comdat align 2 {
  %3 = alloca ptr, align 8
  %4 = alloca i32, align 4
  store ptr %0, ptr %3, align 8, !tbaa !25
  store i32 %1, ptr %4, align 4, !tbaa !27
  %5 = load ptr, ptr %3, align 8
  %6 = getelementptr inbounds nuw %class.app, ptr %5, i32 0, i32 4
  %7 = load i32, ptr %4, align 4, !tbaa !27
  %8 = zext i32 %7 to i64
  %9 = getelementptr inbounds nuw [0 x ptr], ptr %6, i64 0, i64 %8
  %10 = load ptr, ptr %9, align 8, !tbaa !19
  ret ptr %10
}

; Function Attrs: inlinehint mustprogress nounwind uwtable
define linkonce_odr hidden noundef ptr @_Z6to_appP3ast(ptr noundef %0) #8 comdat {
  %2 = alloca ptr, align 8
  store ptr %0, ptr %2, align 8, !tbaa !23
  %3 = load ptr, ptr %2, align 8, !tbaa !23
  ret ptr %3
}

; Function Attrs: mustprogress uwtable
define linkonce_odr hidden noundef zeroext i1 @_ZNK17arith_recognizers6is_addEPK4expr(ptr noundef nonnull align 1 dereferenceable(1) %0, ptr noundef %1) #4 comdat align 2 {
  %3 = alloca ptr, align 8
  %4 = alloca ptr, align 8
  store ptr %0, ptr %3, align 8, !tbaa !21
  store ptr %1, ptr %4, align 8, !tbaa !19
  %5 = load ptr, ptr %4, align 8, !tbaa !19
  %6 = call noundef zeroext i1 @_Z9is_app_ofPK4exprii(ptr noundef %5, i32 noundef 5, i32 noundef 6)
  ret i1 %6
}

; Function Attrs: mustprogress uwtable
define hidden noundef zeroext i1 @_ZNK15arith_eq_solver11is_neg_polyEP4expr(ptr noundef nonnull align 8 dereferenceable(128) %0, ptr noundef %1) #4 align 2 personality ptr @__gxx_personality_v0 {
  %3 = alloca i1, align 1
  %4 = alloca ptr, align 8
  %5 = alloca ptr, align 8
  %6 = alloca %class.rational, align 8
  %7 = alloca i8, align 1
  %8 = alloca ptr, align 8
  %9 = alloca i32, align 4
  %10 = alloca i32, align 4
  store ptr %0, ptr %4, align 8, !tbaa !3
  store ptr %1, ptr %5, align 8, !tbaa !19
  %11 = load ptr, ptr %4, align 8
  %12 = getelementptr inbounds nuw %class.arith_eq_solver, ptr %11, i32 0, i32 2
  %13 = load ptr, ptr %5, align 8, !tbaa !19
  %14 = call noundef zeroext i1 @_ZNK17arith_recognizers6is_addEPK4expr(ptr noundef nonnull align 1 dereferenceable(1) %12, ptr noundef %13)
  br i1 %14, label %15, label %19

15:                                               ; preds = %2
  %16 = load ptr, ptr %5, align 8, !tbaa !19
  %17 = call noundef ptr @_Z6to_appP3ast(ptr noundef %16)
  %18 = call noundef ptr @_ZNK3app7get_argEj(ptr noundef nonnull align 8 dereferenceable(32) %17, i32 noundef 0)
  store ptr %18, ptr %5, align 8, !tbaa !19
  br label %19

19:                                               ; preds = %15, %2
  %20 = getelementptr inbounds nuw %class.arith_eq_solver, ptr %11, i32 0, i32 2
  %21 = load ptr, ptr %5, align 8, !tbaa !19
  %22 = call noundef zeroext i1 @_ZNK17arith_recognizers6is_mulEPK4expr(ptr noundef nonnull align 1 dereferenceable(1) %20, ptr noundef %21)
  br i1 %22, label %23, label %42

23:                                               ; preds = %19
  %24 = load ptr, ptr %5, align 8, !tbaa !19
  %25 = call noundef ptr @_Z6to_appP3ast(ptr noundef %24)
  %26 = call noundef ptr @_ZNK3app7get_argEj(ptr noundef nonnull align 8 dereferenceable(32) %25, i32 noundef 0)
  store ptr %26, ptr %5, align 8, !tbaa !19
  call void @llvm.lifetime.start.p0(i64 32, ptr %6) #3
  call void @_ZN8rationalC2Ev(ptr noundef nonnull align 8 dereferenceable(32) %6)
  call void @llvm.lifetime.start.p0(i64 1, ptr %7) #3
  %27 = getelementptr inbounds nuw %class.arith_eq_solver, ptr %11, i32 0, i32 2
  %28 = load ptr, ptr %5, align 8, !tbaa !19
  %29 = invoke noundef zeroext i1 @_ZNK10arith_util10is_numeralEPK4exprR8rationalRb(ptr noundef nonnull align 8 dereferenceable(16) %27, ptr noundef %28, ptr noundef nonnull align 8 dereferenceable(32) %6, ptr noundef nonnull align 1 dereferenceable(1) %7)
          to label %30 unwind label %34

30:                                               ; preds = %23
  br i1 %29, label %31, label %38

31:                                               ; preds = %30
  %32 = invoke noundef zeroext i1 @_ZNK8rational6is_negEv(ptr noundef nonnull align 8 dereferenceable(32) %6)
          to label %33 unwind label %34

33:                                               ; preds = %31
  store i1 %32, ptr %3, align 1
  store i32 1, ptr %10, align 4
  br label %39

34:                                               ; preds = %31, %23
  %35 = landingpad { ptr, i32 }
          cleanup
  %36 = extractvalue { ptr, i32 } %35, 0
  store ptr %36, ptr %8, align 8
  %37 = extractvalue { ptr, i32 } %35, 1
  store i32 %37, ptr %9, align 4
  call void @llvm.lifetime.end.p0(i64 1, ptr %7) #3
  call void @_ZN8rationalD2Ev(ptr noundef nonnull align 8 dereferenceable(32) %6) #3
  call void @llvm.lifetime.end.p0(i64 32, ptr %6) #3
  br label %45

38:                                               ; preds = %30
  store i32 0, ptr %10, align 4
  br label %39

39:                                               ; preds = %38, %33
  call void @llvm.lifetime.end.p0(i64 1, ptr %7) #3
  call void @_ZN8rationalD2Ev(ptr noundef nonnull align 8 dereferenceable(32) %6) #3
  call void @llvm.lifetime.end.p0(i64 32, ptr %6) #3
  %40 = load i32, ptr %10, align 4
  switch i32 %40, label %50 [
    i32 0, label %41
    i32 1, label %43
  ]

41:                                               ; preds = %39
  br label %42

42:                                               ; preds = %41, %19
  store i1 false, ptr %3, align 1
  br label %43

43:                                               ; preds = %42, %39
  %44 = load i1, ptr %3, align 1
  ret i1 %44

45:                                               ; preds = %34
  %46 = load ptr, ptr %8, align 8
  %47 = load i32, ptr %9, align 4
  %48 = insertvalue { ptr, i32 } poison, ptr %46, 0
  %49 = insertvalue { ptr, i32 } %48, i32 %47, 1
  resume { ptr, i32 } %49

50:                                               ; preds = %39
  unreachable
}