; Function Attrs: mustprogress uwtable
define hidden noundef zeroext i1 @_ZNK15arith_eq_solver11is_neg_polyEP4expr(ptr noundef nonnull align 8 dereferenceable(128) %0, ptr noundef readonly captures(none) %1) local_unnamed_addr #3 align 2 personality ptr @__gxx_personality_v0 {
  %3 = alloca %class.rational, align 8
  %4 = alloca i8, align 1
  %5 = getelementptr inbounds nuw i8, ptr %0, i64 16
  %6 = getelementptr inbounds nuw i8, ptr %1, i64 4
  %7 = load i32, ptr %6, align 4
  %8 = and i32 %7, 65535
  %9 = icmp eq i32 %8, 0
  br i1 %9, label %10, label %_ZNK17arith_recognizers6is_addEPK4expr.exit.thread

10:                                               ; preds = %2
  %11 = getelementptr inbounds nuw i8, ptr %1, i64 16
  %12 = load ptr, ptr %11, align 8, !tbaa !36
  %13 = getelementptr inbounds nuw i8, ptr %12, i64 24
  %14 = load ptr, ptr %13, align 8, !tbaa !42
  %.not.i.i.i.i = icmp eq ptr %14, null
  br i1 %.not.i.i.i.i, label %_ZNK17arith_recognizers6is_addEPK4expr.exit.thread, label %_ZNK17arith_recognizers6is_addEPK4expr.exit

_ZNK17arith_recognizers6is_addEPK4expr.exit:      ; preds = %10
  %15 = load i32, ptr %14, align 8, !tbaa !47
  %16 = icmp eq i32 %15, 5
  %17 = getelementptr inbounds nuw i8, ptr %14, i64 4
  %18 = load i32, ptr %17, align 4
  %19 = icmp eq i32 %18, 6
  %20 = select i1 %16, i1 %19, i1 false
  br i1 %20, label %21, label %_ZNK17arith_recognizers6is_addEPK4expr.exit.thread

21:                                               ; preds = %_ZNK17arith_recognizers6is_addEPK4expr.exit
  %22 = getelementptr inbounds nuw i8, ptr %1, i64 32
  %23 = load ptr, ptr %22, align 8, !tbaa !51
  %.phi.trans.insert = getelementptr inbounds nuw i8, ptr %23, i64 4
  %.pre = load i32, ptr %.phi.trans.insert, align 4
  br label %_ZNK17arith_recognizers6is_addEPK4expr.exit.thread

_ZNK17arith_recognizers6is_addEPK4expr.exit.thread: ; preds = %10, %2, %21, %_ZNK17arith_recognizers6is_addEPK4expr.exit
  %24 = phi i32 [ %.pre, %21 ], [ %7, %_ZNK17arith_recognizers6is_addEPK4expr.exit ], [ %7, %2 ], [ %7, %10 ]
  %.010 = phi ptr [ %23, %21 ], [ %1, %_ZNK17arith_recognizers6is_addEPK4expr.exit ], [ %1, %2 ], [ %1, %10 ]
  %25 = and i32 %24, 65535
  %26 = icmp eq i32 %25, 0
  br i1 %26, label %27, label %_ZNK17arith_recognizers6is_mulEPK4expr.exit.thread

27:                                               ; preds = %_ZNK17arith_recognizers6is_addEPK4expr.exit.thread
  %28 = getelementptr inbounds nuw i8, ptr %.010, i64 16
  %29 = load ptr, ptr %28, align 8, !tbaa !36
  %30 = getelementptr inbounds nuw i8, ptr %29, i64 24
  %31 = load ptr, ptr %30, align 8, !tbaa !42
  %.not.i.i.i.i11 = icmp eq ptr %31, null
  br i1 %.not.i.i.i.i11, label %_ZNK17arith_recognizers6is_mulEPK4expr.exit.thread, label %_ZNK17arith_recognizers6is_mulEPK4expr.exit

_ZNK17arith_recognizers6is_mulEPK4expr.exit:      ; preds = %27
  %32 = load i32, ptr %31, align 8, !tbaa !47
  %33 = icmp eq i32 %32, 5
  %34 = getelementptr inbounds nuw i8, ptr %31, i64 4
  %35 = load i32, ptr %34, align 4
  %36 = icmp eq i32 %35, 9
  %37 = select i1 %33, i1 %36, i1 false
  br i1 %37, label %38, label %_ZNK17arith_recognizers6is_mulEPK4expr.exit.thread

38:                                               ; preds = %_ZNK17arith_recognizers6is_mulEPK4expr.exit
  %39 = getelementptr inbounds nuw i8, ptr %.010, i64 32
  %40 = load ptr, ptr %39, align 8, !tbaa !51
  call void @llvm.lifetime.start.p0(i64 32, ptr nonnull %3) #21
  store i32 0, ptr %3, align 8, !tbaa !52
  %41 = getelementptr inbounds nuw i8, ptr %3, i64 4
  store i8 0, ptr %41, align 4
  %42 = getelementptr inbounds nuw i8, ptr %3, i64 8
  store ptr null, ptr %42, align 8, !tbaa !55
  %43 = getelementptr inbounds nuw i8, ptr %3, i64 16
  store i32 1, ptr %43, align 8, !tbaa !52
  %44 = getelementptr inbounds nuw i8, ptr %3, i64 20
  store i8 0, ptr %44, align 4
  %45 = getelementptr inbounds nuw i8, ptr %3, i64 24
  store ptr null, ptr %45, align 8, !tbaa !55
  call void @llvm.lifetime.start.p0(i64 1, ptr nonnull %4) #21
  %46 = invoke noundef zeroext i1 @_ZNK10arith_util10is_numeralEPK4exprR8rationalRb(ptr noundef nonnull align 8 dereferenceable(16) %5, ptr noundef %40, ptr noundef nonnull align 8 dereferenceable(32) %3, ptr noundef nonnull align 1 dereferenceable(1) %4)
          to label %47 unwind label %51

47:                                               ; preds = %38
  %48 = load i32, ptr %3, align 8
  %49 = icmp slt i32 %48, 0
  call void @llvm.lifetime.end.p0(i64 1, ptr nonnull %4) #21
  %50 = load ptr, ptr @_ZN8rational13g_mpq_managerE, align 8, !tbaa !56
  invoke void @_ZN11mpz_managerILb1EE3delEPS0_R3mpz(ptr noundef %50, ptr noundef nonnull align 8 dereferenceable(32) %3)
          to label %.noexc.i unwind label %53

51:                                               ; preds = %38
  %52 = landingpad { ptr, i32 }
          cleanup
  call void @llvm.lifetime.end.p0(i64 1, ptr nonnull %4) #21
  call void @_ZN8rationalD2Ev(ptr noundef nonnull align 8 dereferenceable(32) %3) #21
  call void @llvm.lifetime.end.p0(i64 32, ptr nonnull %3) #21
  resume { ptr, i32 } %52

.noexc.i:                                         ; preds = %47
  invoke void @_ZN11mpz_managerILb1EE3delEPS0_R3mpz(ptr noundef %50, ptr noundef nonnull align 8 dereferenceable(16) %43)
          to label %_ZN8rationalD2Ev.exit unwind label %53

53:                                               ; preds = %.noexc.i, %47
  %54 = landingpad { ptr, i32 }
          catch ptr null
  %55 = extractvalue { ptr, i32 } %54, 0
  call void @__clang_call_terminate(ptr %55) #22
  unreachable

_ZN8rationalD2Ev.exit:                            ; preds = %.noexc.i
  call void @llvm.lifetime.end.p0(i64 32, ptr nonnull %3) #21
  br i1 %46, label %56, label %_ZNK17arith_recognizers6is_mulEPK4expr.exit.thread

_ZNK17arith_recognizers6is_mulEPK4expr.exit.thread: ; preds = %27, %_ZNK17arith_recognizers6is_addEPK4expr.exit.thread, %_ZN8rationalD2Ev.exit, %_ZNK17arith_recognizers6is_mulEPK4expr.exit
  br label %56

56:                                               ; preds = %_ZN8rationalD2Ev.exit, %_ZNK17arith_recognizers6is_mulEPK4expr.exit.thread
  %.1 = phi i1 [ %49, %_ZN8rationalD2Ev.exit ], [ false, %_ZNK17arith_recognizers6is_mulEPK4expr.exit.thread ]
  ret i1 %.1
}